target datalayout = "e-m:e-p270:32:32-p271:32:32-p272:64:64-i64:64-i128:128-f80:128-n8:16:32:64-S128"
target triple = "x86_64-pc-linux-gnu"

%struct.Rnm_Man_t_ = type { ptr, ptr, ptr, i32, i32, i32, ptr, ptr, ptr, ptr, i32, i32, i32, i32, i32, i32, i64, i64, i64, i64 }
%struct.Gia_Man_t_ = type { ptr, ptr, i32, i32, i32, i32, ptr, ptr, i32, i32, i32, ptr, ptr, %struct.Vec_Int_t_, %struct.Vec_Int_t_, i32, i32, i32, %struct.Vec_Int_t_, ptr, ptr, ptr, i32, i32, i32, i32, ptr, ptr, ptr, ptr, ptr, i32, i32, ptr, i32, ptr, ptr, ptr, ptr, ptr, ptr, ptr, ptr, ptr, ptr, ptr, ptr, ptr, ptr, ptr, ptr, ptr, ptr, %struct.Vec_Int_t_, %struct.Vec_Int_t_, ptr, ptr, ptr, ptr, ptr, ptr, ptr, ptr, ptr, ptr, ptr, ptr, ptr, ptr, ptr, ptr, ptr, ptr, ptr, ptr, ptr, i32, float, float, ptr, ptr, i32, ptr, ptr, ptr, ptr, ptr, ptr, ptr, ptr, ptr, ptr, ptr, ptr, ptr, ptr, ptr, i64, i64, ptr, ptr, i32, i32, i32, i32, i32, i32, i32, i32, i32, i32, i32, i32, ptr, ptr, ptr, ptr, ptr, ptr, ptr, ptr, i32, i32, i32, ptr, i32, i32, ptr, ptr, ptr, ptr, ptr, ptr, i32, i32, ptr, %struct.Vec_Int_t_, %struct.Vec_Int_t_, %struct.Vec_Int_t_, ptr, ptr, ptr, i32, i32, i32, i32, ptr, ptr, ptr, ptr, ptr }
%struct.Vec_Int_t_ = type { i32, i32, ptr }
%struct.Gia_Obj_t_ = type <{ i64, i32 }>

; Function Attrs: inlinehint nounwind uwtable
define internal ptr @Gia_ManObj(ptr noundef %0, i32 noundef %1) #3 {
  %3 = alloca ptr, align 8
  %4 = alloca i32, align 4
  store ptr %0, ptr %3, align 8, !tbaa !3
  store i32 %1, ptr %4, align 4, !tbaa !39
  %5 = load ptr, ptr %3, align 8, !tbaa !3
  %6 = getelementptr inbounds nuw %struct.Gia_Man_t_, ptr %5, i32 0, i32 6
  %7 = load ptr, ptr %6, align 8, !tbaa !68
  %8 = load i32, ptr %4, align 4, !tbaa !39
  %9 = sext i32 %8 to i64
  %10 = getelementptr inbounds %struct.Gia_Obj_t_, ptr %7, i64 %9
  ret ptr %10
}

; Function Attrs: inlinehint nounwind uwtable
define internal i32 @Vec_IntEntry(ptr noundef %0, i32 noundef %1) #3 {
  %3 = alloca ptr, align 8
  %4 = alloca i32, align 4
  store ptr %0, ptr %3, align 8, !tbaa !40
  store i32 %1, ptr %4, align 4, !tbaa !39
  %5 = load ptr, ptr %3, align 8, !tbaa !40
  %6 = getelementptr inbounds nuw %struct.Vec_Int_t_, ptr %5, i32 0, i32 2
  %7 = load ptr, ptr %6, align 8, !tbaa !43
  %8 = load i32, ptr %4, align 4, !tbaa !39
  %9 = sext i32 %8 to i64
  %10 = getelementptr inbounds i32, ptr %7, i64 %9
  %11 = load i32, ptr %10, align 4, !tbaa !39
  ret i32 %11
}

; Function Attrs: inlinehint nounwind uwtable
define internal i32 @Vec_IntSize(ptr noundef %0) #3 {
  %2 = alloca ptr, align 8
  store ptr %0, ptr %2, align 8, !tbaa !40
  %3 = load ptr, ptr %2, align 8, !tbaa !40
  %4 = getelementptr inbounds nuw %struct.Vec_Int_t_, ptr %3, i32 0, i32 1
  %5 = load i32, ptr %4, align 4, !tbaa !41
  ret i32 %5
}

; Function Attrs: nounwind uwtable
define void @Rnm_ManCleanValues(ptr noundef %0) #0 {
  %2 = alloca ptr, align 8
  %3 = alloca ptr, align 8
  %4 = alloca i32, align 4
  store ptr %0, ptr %2, align 8, !tbaa !8
  call void @llvm.lifetime.start.p0(i64 8, ptr %3) #11
  call void @llvm.lifetime.start.p0(i64 4, ptr %4) #11
  store i32 0, ptr %4, align 4, !tbaa !39
  br label %5

5:                                                ; preds = %28, %1
  %6 = load i32, ptr %4, align 4, !tbaa !39
  %7 = load ptr, ptr %2, align 8, !tbaa !8
  %8 = getelementptr inbounds nuw %struct.Rnm_Man_t_, ptr %7, i32 0, i32 2
  %9 = load ptr, ptr %8, align 8, !tbaa !69
  %10 = call i32 @Vec_IntSize(ptr noundef %9)
  %11 = icmp slt i32 %6, %10
  br i1 %11, label %12, label %23

12:                                               ; preds = %5
  %13 = load ptr, ptr %2, align 8, !tbaa !8
  %14 = getelementptr inbounds nuw %struct.Rnm_Man_t_, ptr %13, i32 0, i32 0
  %15 = load ptr, ptr %14, align 8, !tbaa !10
  %16 = load ptr, ptr %2, align 8, !tbaa !8
  %17 = getelementptr inbounds nuw %struct.Rnm_Man_t_, ptr %16, i32 0, i32 2
  %18 = load ptr, ptr %17, align 8, !tbaa !69
  %19 = load i32, ptr %4, align 4, !tbaa !39
  %20 = call i32 @Vec_IntEntry(ptr noundef %18, i32 noundef %19)
  %21 = call ptr @Gia_ManObj(ptr noundef %15, i32 noundef %20)
  store ptr %21, ptr %3, align 8, !tbaa !63
  %22 = icmp ne ptr %21, null
  br label %23

23:                                               ; preds = %12, %5
  %24 = phi i1 [ false, %5 ], [ %22, %12 ]
  br i1 %24, label %25, label %31

25:                                               ; preds = %23
  %26 = load ptr, ptr %3, align 8, !tbaa !63
  %27 = getelementptr inbounds nuw %struct.Gia_Obj_t_, ptr %26, i32 0, i32 1
  store i32 0, ptr %27, align 4, !tbaa !64
  br label %28

28:                                               ; preds = %25
  %29 = load i32, ptr %4, align 4, !tbaa !39
  %30 = add nsw i32 %29, 1
  store i32 %30, ptr %4, align 4, !tbaa !39
  br label %5, !llvm.loop !73

31:                                               ; preds = %23
  store i32 0, ptr %4, align 4, !tbaa !39
  br label %32

32:                                               ; preds = %55, %31
  %33 = load i32, ptr %4, align 4, !tbaa !39
  %34 = load ptr, ptr %2, align 8, !tbaa !8
  %35 = getelementptr inbounds nuw %struct.Rnm_Man_t_, ptr %34, i32 0, i32 6
  %36 = load ptr, ptr %35, align 8, !tbaa !18
  %37 = call i32 @Vec_IntSize(ptr noundef %36)
  %38 = icmp slt i32 %33, %37
  br i1 %38, label %39, label %50

39:                                               ; preds = %32
  %40 = load ptr, ptr %2, align 8, !tbaa !8
  %41 = getelementptr inbounds nuw %struct.Rnm_Man_t_, ptr %40, i32 0, i32 0
  %42 = load ptr, ptr %41, align 8, !tbaa !10
  %43 = load ptr, ptr %2, align 8, !tbaa !8
  %44 = getelementptr inbounds nuw %struct.Rnm_Man_t_, ptr %43, i32 0, i32 6
  %45 = load ptr, ptr %44, align 8, !tbaa !18
  %46 = load i32, ptr %4, align 4, !tbaa !39
  %47 = call i32 @Vec_IntEntry(ptr noundef %45, i32 noundef %46)
  %48 = call ptr @Gia_ManObj(ptr noundef %42, i32 noundef %47)
  store ptr %48, ptr %3, align 8, !tbaa !63
  %49 = icmp ne ptr %48, null
  br label %50

50:                                               ; preds = %39, %32
  %51 = phi i1 [ false, %32 ], [ %49, %39 ]
  br i1 %51, label %52, label %58

52:                                               ; preds = %50
  %53 = load ptr, ptr %3, align 8, !tbaa !63
  %54 = getelementptr inbounds nuw %struct.Gia_Obj_t_, ptr %53, i32 0, i32 1
  store i32 0, ptr %54, align 4, !tbaa !64
  br label %55

55:                                               ; preds = %52
  %56 = load i32, ptr %4, align 4, !tbaa !39
  %57 = add nsw i32 %56, 1
  store i32 %57, ptr %4, align 4, !tbaa !39
  br label %32, !llvm.loop !74

58:                                               ; preds = %50
  call void @llvm.lifetime.end.p0(i64 4, ptr %4) #11
  call void @llvm.lifetime.end.p0(i64 8, ptr %3) #11
  ret void
}