; Function Attrs: nofree norecurse nosync nounwind memory(readwrite, inaccessiblemem: none) uwtable
define void @Rnm_ManCleanValues(ptr noundef readonly captures(none) %0) local_unnamed_addr #9 {
  %2 = getelementptr inbounds nuw i8, ptr %0, i64 16
  %3 = load ptr, ptr %2, align 8, !tbaa !63
  %4 = getelementptr i8, ptr %3, i64 4
  %.val18 = load i32, ptr %4, align 4, !tbaa !15
  %5 = icmp sgt i32 %.val18, 0
  br i1 %5, label %.lr.ph, label %.critedge

.lr.ph:                                           ; preds = %1
  %6 = load ptr, ptr %0, align 8, !tbaa !3
  %7 = getelementptr i8, ptr %6, i64 32
  %.val22 = load ptr, ptr %7, align 8, !tbaa !59
  %.not = icmp eq ptr %.val22, null
  br i1 %.not, label %.critedge, label %.lr.ph.split

.lr.ph.split:                                     ; preds = %.lr.ph
  %8 = getelementptr i8, ptr %3, i64 8
  %.val20 = load ptr, ptr %8, align 8, !tbaa !19
  %wide.trip.count = zext nneg i32 %.val18 to i64
  br label %9

9:                                                ; preds = %.lr.ph.split, %9
  %indvars.iv = phi i64 [ 0, %.lr.ph.split ], [ %indvars.iv.next, %9 ]
  %10 = getelementptr inbounds nuw i32, ptr %.val20, i64 %indvars.iv
  %11 = load i32, ptr %10, align 4, !tbaa !52
  %12 = sext i32 %11 to i64
  %13 = getelementptr inbounds %struct.Gia_Obj_t_, ptr %.val22, i64 %12, i32 1
  store i32 0, ptr %13, align 4, !tbaa !61
  %indvars.iv.next = add nuw nsw i64 %indvars.iv, 1
  %exitcond.not = icmp eq i64 %indvars.iv.next, %wide.trip.count
  br i1 %exitcond.not, label %.critedge, label %9, !llvm.loop !70

.critedge:                                        ; preds = %9, %.lr.ph, %1
  %14 = getelementptr inbounds nuw i8, ptr %0, i64 40
  %15 = load ptr, ptr %14, align 8, !tbaa !20
  %16 = getelementptr i8, ptr %15, i64 4
  %.val = load i32, ptr %16, align 4, !tbaa !15
  %17 = icmp sgt i32 %.val, 0
  br i1 %17, label %.lr.ph26, label %.critedge2

.lr.ph26:                                         ; preds = %.critedge
  %18 = load ptr, ptr %0, align 8, !tbaa !3
  %19 = getelementptr i8, ptr %18, i64 32
  %.val21 = load ptr, ptr %19, align 8, !tbaa !59
  %.not17 = icmp eq ptr %.val21, null
  br i1 %.not17, label %.critedge2, label %.lr.ph26.split

.lr.ph26.split:                                   ; preds = %.lr.ph26
  %20 = getelementptr i8, ptr %15, i64 8
  %.val19 = load ptr, ptr %20, align 8, !tbaa !19
  %wide.trip.count32 = zext nneg i32 %.val to i64
  br label %21

21:                                               ; preds = %.lr.ph26.split, %21
  %indvars.iv29 = phi i64 [ 0, %.lr.ph26.split ], [ %indvars.iv.next30, %21 ]
  %22 = getelementptr inbounds nuw i32, ptr %.val19, i64 %indvars.iv29
  %23 = load i32, ptr %22, align 4, !tbaa !52
  %24 = sext i32 %23 to i64
  %25 = getelementptr inbounds %struct.Gia_Obj_t_, ptr %.val21, i64 %24, i32 1
  store i32 0, ptr %25, align 4, !tbaa !61
  %indvars.iv.next30 = add nuw nsw i64 %indvars.iv29, 1
  %exitcond33.not = icmp eq i64 %indvars.iv.next30, %wide.trip.count32
  br i1 %exitcond33.not, label %.critedge2, label %21, !llvm.loop !71

.critedge2:                                       ; preds = %21, %.lr.ph26, %.critedge
  ret void
}